; Function Attrs: mustprogress uwtable
define void @_ZN5faiss19MultiIndexQuantizerC2Eimm(ptr noundef nonnull align 8 dereferenceable(256) initializes((0, 12), (16, 26), (28, 36)) %0, i32 noundef %1, i64 noundef %2, i64 noundef %3) unnamed_addr #1 align 2 personality ptr @__gxx_personality_v0 {
  %5 = sext i32 %1 to i64
  %6 = getelementptr inbounds nuw i8, ptr %0, i64 8
  store i32 %1, ptr %6, align 8, !tbaa !50
  %7 = getelementptr inbounds nuw i8, ptr %0, i64 16
  store i64 0, ptr %7, align 8, !tbaa !33
  %8 = getelementptr inbounds nuw i8, ptr %0, i64 24
  store i8 0, ptr %8, align 8, !tbaa !13
  %9 = getelementptr inbounds nuw i8, ptr %0, i64 25
  store i8 1, ptr %9, align 1, !tbaa !32
  %10 = getelementptr inbounds nuw i8, ptr %0, i64 28
  store i32 1, ptr %10, align 4, !tbaa !76
  %11 = getelementptr inbounds nuw i8, ptr %0, i64 32
  store float 0.000000e+00, ptr %11, align 8, !tbaa !196
  store ptr getelementptr inbounds nuw inrange(-16, 184) (i8, ptr @_ZTVN5faiss19MultiIndexQuantizerE, i64 16), ptr %0, align 8, !tbaa !4
  %12 = getelementptr inbounds nuw i8, ptr %0, i64 40
  invoke void @_ZN5faiss16ProductQuantizerC1Emmm(ptr noundef nonnull align 8 dereferenceable(216) %12, i64 noundef %5, i64 noundef %2, i64 noundef %3)
          to label %13 unwind label %16

13:                                               ; preds = %4
  store i8 0, ptr %9, align 1, !tbaa !32
  %14 = load i8, ptr %8, align 8, !tbaa !13, !range !20, !noundef !21
  %15 = getelementptr inbounds nuw i8, ptr %0, i64 96
  store i8 %14, ptr %15, align 8, !tbaa !22
  ret void

16:                                               ; preds = %4
  %17 = landingpad { ptr, i32 }
          cleanup
  tail call void @_ZN5faiss5IndexD2Ev(ptr noundef nonnull align 8 dereferenceable(36) %0) #20
  resume { ptr, i32 } %17
}